target datalayout = "e-m:e-p270:32:32-p271:32:32-p272:64:64-i64:64-i128:128-f80:128-n8:16:32:64-S128"
target triple = "x86_64-pc-linux-gnu"

%struct.RoqContext = type { ptr, ptr, ptr, ptr, i32, i32, [256 x %struct.roq_cell], [256 x %struct.roq_qcell] }
%struct.roq_cell = type { [4 x i8], i8, i8 }
%struct.roq_qcell = type { [4 x i32] }
%struct.AVFrame = type { [8 x ptr], [8 x i32], ptr, i32, i32, i32, i32, i32, %struct.AVRational, i64, i64, %struct.AVRational, i32, ptr, i32, i32, [8 x ptr], ptr, i32, ptr, i32, i32, i32, i32, i32, i32, i32, i64, ptr, i32, ptr, ptr, i64, i64, i64, i64, ptr, %struct.AVChannelLayout, i64 }
%struct.AVRational = type { i32, i32 }
%struct.AVChannelLayout = type { i32, i32, %union.anon, ptr }
%union.anon = type { i64 }

; Function Attrs: nounwind uwtable
define void @ff_apply_vector_4x4(ptr noundef %0, i32 noundef %1, i32 noundef %2, ptr noundef %3) #0 {
  %5 = alloca ptr, align 8
  %6 = alloca i32, align 4
  %7 = alloca i32, align 4
  %8 = alloca ptr, align 8
  %9 = alloca ptr, align 8
  %10 = alloca i32, align 4
  %11 = alloca i32, align 4
  store ptr %0, ptr %5, align 8, !tbaa !4
  store i32 %1, ptr %6, align 4, !tbaa !9
  store i32 %2, ptr %7, align 4, !tbaa !9
  store ptr %3, ptr %8, align 8, !tbaa !11
  call void @llvm.lifetime.start.p0(i64 8, ptr %9) #5
  call void @llvm.lifetime.start.p0(i64 4, ptr %10) #5
  call void @llvm.lifetime.start.p0(i64 4, ptr %11) #5
  %12 = load ptr, ptr %5, align 8, !tbaa !4
  %13 = getelementptr inbounds nuw %struct.RoqContext, ptr %12, i32 0, i32 3
  %14 = load ptr, ptr %13, align 8, !tbaa !13
  %15 = getelementptr inbounds nuw %struct.AVFrame, ptr %14, i32 0, i32 1
  %16 = getelementptr inbounds [8 x i32], ptr %15, i64 0, i64 0
  %17 = load i32, ptr %16, align 8, !tbaa !9
  store i32 %17, ptr %11, align 4, !tbaa !9
  %18 = load i32, ptr %7, align 4, !tbaa !9
  %19 = load i32, ptr %11, align 4, !tbaa !9
  %20 = mul nsw i32 %18, %19
  %21 = load i32, ptr %6, align 4, !tbaa !9
  %22 = add nsw i32 %20, %21
  store i32 %22, ptr %10, align 4, !tbaa !9
  %23 = load ptr, ptr %5, align 8, !tbaa !4
  %24 = getelementptr inbounds nuw %struct.RoqContext, ptr %23, i32 0, i32 3
  %25 = load ptr, ptr %24, align 8, !tbaa !13
  %26 = getelementptr inbounds nuw %struct.AVFrame, ptr %25, i32 0, i32 0
  %27 = getelementptr inbounds [8 x ptr], ptr %26, i64 0, i64 0
  %28 = load ptr, ptr %27, align 8, !tbaa !17
  %29 = load i32, ptr %10, align 4, !tbaa !9
  %30 = sext i32 %29 to i64
  %31 = getelementptr inbounds i8, ptr %28, i64 %30
  store ptr %31, ptr %9, align 8, !tbaa !17
  %32 = load ptr, ptr %8, align 8, !tbaa !11
  %33 = getelementptr inbounds nuw %struct.roq_cell, ptr %32, i32 0, i32 0
  %34 = getelementptr inbounds [4 x i8], ptr %33, i64 0, i64 0
  %35 = load i8, ptr %34, align 1, !tbaa !19
  %36 = load ptr, ptr %9, align 8, !tbaa !17
  %37 = load i32, ptr %11, align 4, !tbaa !9
  %38 = add nsw i32 %37, 1
  %39 = sext i32 %38 to i64
  %40 = getelementptr inbounds i8, ptr %36, i64 %39
  store i8 %35, ptr %40, align 1, !tbaa !19
  %41 = load ptr, ptr %9, align 8, !tbaa !17
  %42 = load i32, ptr %11, align 4, !tbaa !9
  %43 = sext i32 %42 to i64
  %44 = getelementptr inbounds i8, ptr %41, i64 %43
  store i8 %35, ptr %44, align 1, !tbaa !19
  %45 = load ptr, ptr %9, align 8, !tbaa !17
  %46 = getelementptr inbounds i8, ptr %45, i64 1
  store i8 %35, ptr %46, align 1, !tbaa !19
  %47 = load ptr, ptr %9, align 8, !tbaa !17
  %48 = getelementptr inbounds i8, ptr %47, i64 0
  store i8 %35, ptr %48, align 1, !tbaa !19
  %49 = load ptr, ptr %8, align 8, !tbaa !11
  %50 = getelementptr inbounds nuw %struct.roq_cell, ptr %49, i32 0, i32 0
  %51 = getelementptr inbounds [4 x i8], ptr %50, i64 0, i64 1
  %52 = load i8, ptr %51, align 1, !tbaa !19
  %53 = load ptr, ptr %9, align 8, !tbaa !17
  %54 = load i32, ptr %11, align 4, !tbaa !9
  %55 = add nsw i32 %54, 3
  %56 = sext i32 %55 to i64
  %57 = getelementptr inbounds i8, ptr %53, i64 %56
  store i8 %52, ptr %57, align 1, !tbaa !19
  %58 = load ptr, ptr %9, align 8, !tbaa !17
  %59 = load i32, ptr %11, align 4, !tbaa !9
  %60 = add nsw i32 %59, 2
  %61 = sext i32 %60 to i64
  %62 = getelementptr inbounds i8, ptr %58, i64 %61
  store i8 %52, ptr %62, align 1, !tbaa !19
  %63 = load ptr, ptr %9, align 8, !tbaa !17
  %64 = getelementptr inbounds i8, ptr %63, i64 3
  store i8 %52, ptr %64, align 1, !tbaa !19
  %65 = load ptr, ptr %9, align 8, !tbaa !17
  %66 = getelementptr inbounds i8, ptr %65, i64 2
  store i8 %52, ptr %66, align 1, !tbaa !19
  %67 = load ptr, ptr %8, align 8, !tbaa !11
  %68 = getelementptr inbounds nuw %struct.roq_cell, ptr %67, i32 0, i32 0
  %69 = getelementptr inbounds [4 x i8], ptr %68, i64 0, i64 2
  %70 = load i8, ptr %69, align 1, !tbaa !19
  %71 = load ptr, ptr %9, align 8, !tbaa !17
  %72 = load i32, ptr %11, align 4, !tbaa !9
  %73 = mul nsw i32 %72, 3
  %74 = add nsw i32 %73, 1
  %75 = sext i32 %74 to i64
  %76 = getelementptr inbounds i8, ptr %71, i64 %75
  store i8 %70, ptr %76, align 1, !tbaa !19
  %77 = load ptr, ptr %9, align 8, !tbaa !17
  %78 = load i32, ptr %11, align 4, !tbaa !9
  %79 = mul nsw i32 %78, 3
  %80 = sext i32 %79 to i64
  %81 = getelementptr inbounds i8, ptr %77, i64 %80
  store i8 %70, ptr %81, align 1, !tbaa !19
  %82 = load ptr, ptr %9, align 8, !tbaa !17
  %83 = load i32, ptr %11, align 4, !tbaa !9
  %84 = mul nsw i32 %83, 2
  %85 = add nsw i32 %84, 1
  %86 = sext i32 %85 to i64
  %87 = getelementptr inbounds i8, ptr %82, i64 %86
  store i8 %70, ptr %87, align 1, !tbaa !19
  %88 = load ptr, ptr %9, align 8, !tbaa !17
  %89 = load i32, ptr %11, align 4, !tbaa !9
  %90 = mul nsw i32 %89, 2
  %91 = sext i32 %90 to i64
  %92 = getelementptr inbounds i8, ptr %88, i64 %91
  store i8 %70, ptr %92, align 1, !tbaa !19
  %93 = load ptr, ptr %8, align 8, !tbaa !11
  %94 = getelementptr inbounds nuw %struct.roq_cell, ptr %93, i32 0, i32 0
  %95 = getelementptr inbounds [4 x i8], ptr %94, i64 0, i64 3
  %96 = load i8, ptr %95, align 1, !tbaa !19
  %97 = load ptr, ptr %9, align 8, !tbaa !17
  %98 = load i32, ptr %11, align 4, !tbaa !9
  %99 = mul nsw i32 %98, 3
  %100 = add nsw i32 %99, 3
  %101 = sext i32 %100 to i64
  %102 = getelementptr inbounds i8, ptr %97, i64 %101
  store i8 %96, ptr %102, align 1, !tbaa !19
  %103 = load ptr, ptr %9, align 8, !tbaa !17
  %104 = load i32, ptr %11, align 4, !tbaa !9
  %105 = mul nsw i32 %104, 3
  %106 = add nsw i32 %105, 2
  %107 = sext i32 %106 to i64
  %108 = getelementptr inbounds i8, ptr %103, i64 %107
  store i8 %96, ptr %108, align 1, !tbaa !19
  %109 = load ptr, ptr %9, align 8, !tbaa !17
  %110 = load i32, ptr %11, align 4, !tbaa !9
  %111 = mul nsw i32 %110, 2
  %112 = add nsw i32 %111, 3
  %113 = sext i32 %112 to i64
  %114 = getelementptr inbounds i8, ptr %109, i64 %113
  store i8 %96, ptr %114, align 1, !tbaa !19
  %115 = load ptr, ptr %9, align 8, !tbaa !17
  %116 = load i32, ptr %11, align 4, !tbaa !9
  %117 = mul nsw i32 %116, 2
  %118 = add nsw i32 %117, 2
  %119 = sext i32 %118 to i64
  %120 = getelementptr inbounds i8, ptr %115, i64 %119
  store i8 %96, ptr %120, align 1, !tbaa !19
  %121 = load ptr, ptr %5, align 8, !tbaa !4
  %122 = getelementptr inbounds nuw %struct.RoqContext, ptr %121, i32 0, i32 3
  %123 = load ptr, ptr %122, align 8, !tbaa !13
  %124 = getelementptr inbounds nuw %struct.AVFrame, ptr %123, i32 0, i32 1
  %125 = getelementptr inbounds [8 x i32], ptr %124, i64 0, i64 1
  %126 = load i32, ptr %125, align 4, !tbaa !9
  store i32 %126, ptr %11, align 4, !tbaa !9
  %127 = load i32, ptr %7, align 4, !tbaa !9
  %128 = load i32, ptr %11, align 4, !tbaa !9
  %129 = mul nsw i32 %127, %128
  %130 = load i32, ptr %6, align 4, !tbaa !9
  %131 = add nsw i32 %129, %130
  store i32 %131, ptr %10, align 4, !tbaa !9
  %132 = load ptr, ptr %5, align 8, !tbaa !4
  %133 = getelementptr inbounds nuw %struct.RoqContext, ptr %132, i32 0, i32 3
  %134 = load ptr, ptr %133, align 8, !tbaa !13
  %135 = getelementptr inbounds nuw %struct.AVFrame, ptr %134, i32 0, i32 0
  %136 = getelementptr inbounds [8 x ptr], ptr %135, i64 0, i64 1
  %137 = load ptr, ptr %136, align 8, !tbaa !17
  %138 = load i32, ptr %10, align 4, !tbaa !9
  %139 = sext i32 %138 to i64
  %140 = getelementptr inbounds i8, ptr %137, i64 %139
  store ptr %140, ptr %9, align 8, !tbaa !17
  %141 = load ptr, ptr %8, align 8, !tbaa !11
  %142 = getelementptr inbounds nuw %struct.roq_cell, ptr %141, i32 0, i32 1
  %143 = load i8, ptr %142, align 1, !tbaa !20
  %144 = load ptr, ptr %9, align 8, !tbaa !17
  %145 = load i32, ptr %11, align 4, !tbaa !9
  %146 = mul nsw i32 %145, 3
  %147 = add nsw i32 %146, 3
  %148 = sext i32 %147 to i64
  %149 = getelementptr inbounds i8, ptr %144, i64 %148
  store i8 %143, ptr %149, align 1, !tbaa !19
  %150 = load ptr, ptr %9, align 8, !tbaa !17
  %151 = load i32, ptr %11, align 4, !tbaa !9
  %152 = mul nsw i32 %151, 3
  %153 = add nsw i32 %152, 2
  %154 = sext i32 %153 to i64
  %155 = getelementptr inbounds i8, ptr %150, i64 %154
  store i8 %143, ptr %155, align 1, !tbaa !19
  %156 = load ptr, ptr %9, align 8, !tbaa !17
  %157 = load i32, ptr %11, align 4, !tbaa !9
  %158 = mul nsw i32 %157, 2
  %159 = add nsw i32 %158, 3
  %160 = sext i32 %159 to i64
  %161 = getelementptr inbounds i8, ptr %156, i64 %160
  store i8 %143, ptr %161, align 1, !tbaa !19
  %162 = load ptr, ptr %9, align 8, !tbaa !17
  %163 = load i32, ptr %11, align 4, !tbaa !9
  %164 = mul nsw i32 %163, 2
  %165 = add nsw i32 %164, 2
  %166 = sext i32 %165 to i64
  %167 = getelementptr inbounds i8, ptr %162, i64 %166
  store i8 %143, ptr %167, align 1, !tbaa !19
  %168 = load ptr, ptr %9, align 8, !tbaa !17
  %169 = load i32, ptr %11, align 4, !tbaa !9
  %170 = mul nsw i32 %169, 3
  %171 = add nsw i32 %170, 1
  %172 = sext i32 %171 to i64
  %173 = getelementptr inbounds i8, ptr %168, i64 %172
  store i8 %143, ptr %173, align 1, !tbaa !19
  %174 = load ptr, ptr %9, align 8, !tbaa !17
  %175 = load i32, ptr %11, align 4, !tbaa !9
  %176 = mul nsw i32 %175, 3
  %177 = sext i32 %176 to i64
  %178 = getelementptr inbounds i8, ptr %174, i64 %177
  store i8 %143, ptr %178, align 1, !tbaa !19
  %179 = load ptr, ptr %9, align 8, !tbaa !17
  %180 = load i32, ptr %11, align 4, !tbaa !9
  %181 = mul nsw i32 %180, 2
  %182 = add nsw i32 %181, 1
  %183 = sext i32 %182 to i64
  %184 = getelementptr inbounds i8, ptr %179, i64 %183
  store i8 %143, ptr %184, align 1, !tbaa !19
  %185 = load ptr, ptr %9, align 8, !tbaa !17
  %186 = load i32, ptr %11, align 4, !tbaa !9
  %187 = mul nsw i32 %186, 2
  %188 = sext i32 %187 to i64
  %189 = getelementptr inbounds i8, ptr %185, i64 %188
  store i8 %143, ptr %189, align 1, !tbaa !19
  %190 = load ptr, ptr %9, align 8, !tbaa !17
  %191 = load i32, ptr %11, align 4, !tbaa !9
  %192 = add nsw i32 %191, 3
  %193 = sext i32 %192 to i64
  %194 = getelementptr inbounds i8, ptr %190, i64 %193
  store i8 %143, ptr %194, align 1, !tbaa !19
  %195 = load ptr, ptr %9, align 8, !tbaa !17
  %196 = load i32, ptr %11, align 4, !tbaa !9
  %197 = add nsw i32 %196, 2
  %198 = sext i32 %197 to i64
  %199 = getelementptr inbounds i8, ptr %195, i64 %198
  store i8 %143, ptr %199, align 1, !tbaa !19
  %200 = load ptr, ptr %9, align 8, !tbaa !17
  %201 = getelementptr inbounds i8, ptr %200, i64 3
  store i8 %143, ptr %201, align 1, !tbaa !19
  %202 = load ptr, ptr %9, align 8, !tbaa !17
  %203 = getelementptr inbounds i8, ptr %202, i64 2
  store i8 %143, ptr %203, align 1, !tbaa !19
  %204 = load ptr, ptr %9, align 8, !tbaa !17
  %205 = load i32, ptr %11, align 4, !tbaa !9
  %206 = add nsw i32 %205, 1
  %207 = sext i32 %206 to i64
  %208 = getelementptr inbounds i8, ptr %204, i64 %207
  store i8 %143, ptr %208, align 1, !tbaa !19
  %209 = load ptr, ptr %9, align 8, !tbaa !17
  %210 = load i32, ptr %11, align 4, !tbaa !9
  %211 = sext i32 %210 to i64
  %212 = getelementptr inbounds i8, ptr %209, i64 %211
  store i8 %143, ptr %212, align 1, !tbaa !19
  %213 = load ptr, ptr %9, align 8, !tbaa !17
  %214 = getelementptr inbounds i8, ptr %213, i64 1
  store i8 %143, ptr %214, align 1, !tbaa !19
  %215 = load ptr, ptr %9, align 8, !tbaa !17
  %216 = getelementptr inbounds i8, ptr %215, i64 0
  store i8 %143, ptr %216, align 1, !tbaa !19
  %217 = load ptr, ptr %5, align 8, !tbaa !4
  %218 = getelementptr inbounds nuw %struct.RoqContext, ptr %217, i32 0, i32 3
  %219 = load ptr, ptr %218, align 8, !tbaa !13
  %220 = getelementptr inbounds nuw %struct.AVFrame, ptr %219, i32 0, i32 0
  %221 = getelementptr inbounds [8 x ptr], ptr %220, i64 0, i64 2
  %222 = load ptr, ptr %221, align 8, !tbaa !17
  %223 = load i32, ptr %10, align 4, !tbaa !9
  %224 = sext i32 %223 to i64
  %225 = getelementptr inbounds i8, ptr %222, i64 %224
  store ptr %225, ptr %9, align 8, !tbaa !17
  %226 = load ptr, ptr %8, align 8, !tbaa !11
  %227 = getelementptr inbounds nuw %struct.roq_cell, ptr %226, i32 0, i32 2
  %228 = load i8, ptr %227, align 1, !tbaa !22
  %229 = load ptr, ptr %9, align 8, !tbaa !17
  %230 = load i32, ptr %11, align 4, !tbaa !9
  %231 = mul nsw i32 %230, 3
  %232 = add nsw i32 %231, 3
  %233 = sext i32 %232 to i64
  %234 = getelementptr inbounds i8, ptr %229, i64 %233
  store i8 %228, ptr %234, align 1, !tbaa !19
  %235 = load ptr, ptr %9, align 8, !tbaa !17
  %236 = load i32, ptr %11, align 4, !tbaa !9
  %237 = mul nsw i32 %236, 3
  %238 = add nsw i32 %237, 2
  %239 = sext i32 %238 to i64
  %240 = getelementptr inbounds i8, ptr %235, i64 %239
  store i8 %228, ptr %240, align 1, !tbaa !19
  %241 = load ptr, ptr %9, align 8, !tbaa !17
  %242 = load i32, ptr %11, align 4, !tbaa !9
  %243 = mul nsw i32 %242, 2
  %244 = add nsw i32 %243, 3
  %245 = sext i32 %244 to i64
  %246 = getelementptr inbounds i8, ptr %241, i64 %245
  store i8 %228, ptr %246, align 1, !tbaa !19
  %247 = load ptr, ptr %9, align 8, !tbaa !17
  %248 = load i32, ptr %11, align 4, !tbaa !9
  %249 = mul nsw i32 %248, 2
  %250 = add nsw i32 %249, 2
  %251 = sext i32 %250 to i64
  %252 = getelementptr inbounds i8, ptr %247, i64 %251
  store i8 %228, ptr %252, align 1, !tbaa !19
  %253 = load ptr, ptr %9, align 8, !tbaa !17
  %254 = load i32, ptr %11, align 4, !tbaa !9
  %255 = mul nsw i32 %254, 3
  %256 = add nsw i32 %255, 1
  %257 = sext i32 %256 to i64
  %258 = getelementptr inbounds i8, ptr %253, i64 %257
  store i8 %228, ptr %258, align 1, !tbaa !19
  %259 = load ptr, ptr %9, align 8, !tbaa !17
  %260 = load i32, ptr %11, align 4, !tbaa !9
  %261 = mul nsw i32 %260, 3
  %262 = sext i32 %261 to i64
  %263 = getelementptr inbounds i8, ptr %259, i64 %262
  store i8 %228, ptr %263, align 1, !tbaa !19
  %264 = load ptr, ptr %9, align 8, !tbaa !17
  %265 = load i32, ptr %11, align 4, !tbaa !9
  %266 = mul nsw i32 %265, 2
  %267 = add nsw i32 %266, 1
  %268 = sext i32 %267 to i64
  %269 = getelementptr inbounds i8, ptr %264, i64 %268
  store i8 %228, ptr %269, align 1, !tbaa !19
  %270 = load ptr, ptr %9, align 8, !tbaa !17
  %271 = load i32, ptr %11, align 4, !tbaa !9
  %272 = mul nsw i32 %271, 2
  %273 = sext i32 %272 to i64
  %274 = getelementptr inbounds i8, ptr %270, i64 %273
  store i8 %228, ptr %274, align 1, !tbaa !19
  %275 = load ptr, ptr %9, align 8, !tbaa !17
  %276 = load i32, ptr %11, align 4, !tbaa !9
  %277 = add nsw i32 %276, 3
  %278 = sext i32 %277 to i64
  %279 = getelementptr inbounds i8, ptr %275, i64 %278
  store i8 %228, ptr %279, align 1, !tbaa !19
  %280 = load ptr, ptr %9, align 8, !tbaa !17
  %281 = load i32, ptr %11, align 4, !tbaa !9
  %282 = add nsw i32 %281, 2
  %283 = sext i32 %282 to i64
  %284 = getelementptr inbounds i8, ptr %280, i64 %283
  store i8 %228, ptr %284, align 1, !tbaa !19
  %285 = load ptr, ptr %9, align 8, !tbaa !17
  %286 = getelementptr inbounds i8, ptr %285, i64 3
  store i8 %228, ptr %286, align 1, !tbaa !19
  %287 = load ptr, ptr %9, align 8, !tbaa !17
  %288 = getelementptr inbounds i8, ptr %287, i64 2
  store i8 %228, ptr %288, align 1, !tbaa !19
  %289 = load ptr, ptr %9, align 8, !tbaa !17
  %290 = load i32, ptr %11, align 4, !tbaa !9
  %291 = add nsw i32 %290, 1
  %292 = sext i32 %291 to i64
  %293 = getelementptr inbounds i8, ptr %289, i64 %292
  store i8 %228, ptr %293, align 1, !tbaa !19
  %294 = load ptr, ptr %9, align 8, !tbaa !17
  %295 = load i32, ptr %11, align 4, !tbaa !9
  %296 = sext i32 %295 to i64
  %297 = getelementptr inbounds i8, ptr %294, i64 %296
  store i8 %228, ptr %297, align 1, !tbaa !19
  %298 = load ptr, ptr %9, align 8, !tbaa !17
  %299 = getelementptr inbounds i8, ptr %298, i64 1
  store i8 %228, ptr %299, align 1, !tbaa !19
  %300 = load ptr, ptr %9, align 8, !tbaa !17
  %301 = getelementptr inbounds i8, ptr %300, i64 0
  store i8 %228, ptr %301, align 1, !tbaa !19
  call void @llvm.lifetime.end.p0(i64 4, ptr %11) #5
  call void @llvm.lifetime.end.p0(i64 4, ptr %10) #5
  call void @llvm.lifetime.end.p0(i64 8, ptr %9) #5
  ret void
}