; Function Attrs: mustprogress nofree norecurse nosync nounwind willreturn memory(readwrite, inaccessiblemem: none) uwtable
define void @ff_apply_vector_4x4(ptr noundef readonly captures(none) %0, i32 noundef %1, i32 noundef %2, ptr noundef readonly captures(none) %3) local_unnamed_addr #0 {
  %5 = getelementptr inbounds nuw i8, ptr %0, i64 24
  %6 = load ptr, ptr %5, align 8, !tbaa !4
  %7 = getelementptr inbounds nuw i8, ptr %6, i64 64
  %8 = load i32, ptr %7, align 8, !tbaa !12
  %9 = mul nsw i32 %8, %2
  %10 = add nsw i32 %9, %1
  %11 = load ptr, ptr %6, align 8, !tbaa !13
  %12 = sext i32 %10 to i64
  %13 = getelementptr inbounds i8, ptr %11, i64 %12
  %14 = load i8, ptr %3, align 1, !tbaa !15
  %15 = sext i32 %8 to i64
  %16 = getelementptr i8, ptr %13, i64 %15
  %17 = getelementptr i8, ptr %16, i64 1
  store i8 %14, ptr %17, align 1, !tbaa !15
  store i8 %14, ptr %16, align 1, !tbaa !15
  %18 = getelementptr inbounds nuw i8, ptr %13, i64 1
  store i8 %14, ptr %18, align 1, !tbaa !15
  store i8 %14, ptr %13, align 1, !tbaa !15
  %19 = getelementptr inbounds nuw i8, ptr %3, i64 1
  %20 = load i8, ptr %19, align 1, !tbaa !15
  %21 = getelementptr i8, ptr %16, i64 3
  store i8 %20, ptr %21, align 1, !tbaa !15
  %22 = getelementptr i8, ptr %16, i64 2
  store i8 %20, ptr %22, align 1, !tbaa !15
  %23 = getelementptr inbounds nuw i8, ptr %13, i64 3
  store i8 %20, ptr %23, align 1, !tbaa !15
  %24 = getelementptr inbounds nuw i8, ptr %13, i64 2
  store i8 %20, ptr %24, align 1, !tbaa !15
  %25 = getelementptr inbounds nuw i8, ptr %3, i64 2
  %26 = load i8, ptr %25, align 1, !tbaa !15
  %27 = mul nsw i32 %8, 3
  %28 = sext i32 %27 to i64
  %29 = getelementptr i8, ptr %13, i64 %28
  %30 = getelementptr i8, ptr %29, i64 1
  store i8 %26, ptr %30, align 1, !tbaa !15
  store i8 %26, ptr %29, align 1, !tbaa !15
  %31 = shl nsw i32 %8, 1
  %32 = sext i32 %31 to i64
  %33 = getelementptr i8, ptr %13, i64 %32
  %34 = getelementptr i8, ptr %33, i64 1
  store i8 %26, ptr %34, align 1, !tbaa !15
  store i8 %26, ptr %33, align 1, !tbaa !15
  %35 = getelementptr inbounds nuw i8, ptr %3, i64 3
  %36 = load i8, ptr %35, align 1, !tbaa !15
  %37 = getelementptr i8, ptr %29, i64 3
  store i8 %36, ptr %37, align 1, !tbaa !15
  %38 = getelementptr i8, ptr %29, i64 2
  store i8 %36, ptr %38, align 1, !tbaa !15
  %39 = getelementptr i8, ptr %33, i64 3
  store i8 %36, ptr %39, align 1, !tbaa !15
  %40 = getelementptr i8, ptr %33, i64 2
  store i8 %36, ptr %40, align 1, !tbaa !15
  %41 = load ptr, ptr %5, align 8, !tbaa !4
  %42 = getelementptr inbounds nuw i8, ptr %41, i64 68
  %43 = load i32, ptr %42, align 4, !tbaa !12
  %44 = mul nsw i32 %43, %2
  %45 = add nsw i32 %44, %1
  %46 = getelementptr inbounds nuw i8, ptr %41, i64 8
  %47 = load ptr, ptr %46, align 8, !tbaa !13
  %48 = sext i32 %45 to i64
  %49 = getelementptr inbounds i8, ptr %47, i64 %48
  %50 = getelementptr inbounds nuw i8, ptr %3, i64 4
  %51 = load i8, ptr %50, align 1, !tbaa !16
  %52 = mul nsw i32 %43, 3
  %53 = add nsw i32 %52, 3
  %54 = sext i32 %53 to i64
  %55 = getelementptr inbounds i8, ptr %49, i64 %54
  store i8 %51, ptr %55, align 1, !tbaa !15
  %56 = add nsw i32 %52, 2
  %57 = sext i32 %56 to i64
  %58 = getelementptr inbounds i8, ptr %49, i64 %57
  store i8 %51, ptr %58, align 1, !tbaa !15
  %59 = shl nsw i32 %43, 1
  %60 = add nsw i32 %59, 3
  %61 = sext i32 %60 to i64
  %62 = getelementptr inbounds i8, ptr %49, i64 %61
  store i8 %51, ptr %62, align 1, !tbaa !15
  %63 = add nsw i32 %59, 2
  %64 = sext i32 %63 to i64
  %65 = getelementptr inbounds i8, ptr %49, i64 %64
  store i8 %51, ptr %65, align 1, !tbaa !15
  %66 = add nsw i32 %52, 1
  %67 = sext i32 %66 to i64
  %68 = getelementptr inbounds i8, ptr %49, i64 %67
  store i8 %51, ptr %68, align 1, !tbaa !15
  %69 = sext i32 %52 to i64
  %70 = getelementptr inbounds i8, ptr %49, i64 %69
  store i8 %51, ptr %70, align 1, !tbaa !15
  %71 = or disjoint i32 %59, 1
  %72 = sext i32 %71 to i64
  %73 = getelementptr inbounds i8, ptr %49, i64 %72
  store i8 %51, ptr %73, align 1, !tbaa !15
  %74 = sext i32 %59 to i64
  %75 = getelementptr inbounds i8, ptr %49, i64 %74
  store i8 %51, ptr %75, align 1, !tbaa !15
  %76 = add nsw i32 %43, 3
  %77 = sext i32 %76 to i64
  %78 = getelementptr inbounds i8, ptr %49, i64 %77
  store i8 %51, ptr %78, align 1, !tbaa !15
  %79 = add nsw i32 %43, 2
  %80 = sext i32 %79 to i64
  %81 = getelementptr inbounds i8, ptr %49, i64 %80
  store i8 %51, ptr %81, align 1, !tbaa !15
  %82 = getelementptr inbounds nuw i8, ptr %49, i64 3
  store i8 %51, ptr %82, align 1, !tbaa !15
  %83 = getelementptr inbounds nuw i8, ptr %49, i64 2
  store i8 %51, ptr %83, align 1, !tbaa !15
  %84 = add nsw i32 %43, 1
  %85 = sext i32 %84 to i64
  %86 = getelementptr inbounds i8, ptr %49, i64 %85
  store i8 %51, ptr %86, align 1, !tbaa !15
  %87 = sext i32 %43 to i64
  %88 = getelementptr inbounds i8, ptr %49, i64 %87
  store i8 %51, ptr %88, align 1, !tbaa !15
  %89 = getelementptr inbounds nuw i8, ptr %49, i64 1
  store i8 %51, ptr %89, align 1, !tbaa !15
  store i8 %51, ptr %49, align 1, !tbaa !15
  %90 = load ptr, ptr %5, align 8, !tbaa !4
  %91 = getelementptr inbounds nuw i8, ptr %90, i64 16
  %92 = load ptr, ptr %91, align 8, !tbaa !13
  %93 = getelementptr inbounds i8, ptr %92, i64 %48
  %94 = getelementptr inbounds nuw i8, ptr %3, i64 5
  %95 = load i8, ptr %94, align 1, !tbaa !18
  %96 = getelementptr inbounds i8, ptr %93, i64 %54
  store i8 %95, ptr %96, align 1, !tbaa !15
  %97 = getelementptr inbounds i8, ptr %93, i64 %57
  store i8 %95, ptr %97, align 1, !tbaa !15
  %98 = getelementptr inbounds i8, ptr %93, i64 %61
  store i8 %95, ptr %98, align 1, !tbaa !15
  %99 = getelementptr inbounds i8, ptr %93, i64 %64
  store i8 %95, ptr %99, align 1, !tbaa !15
  %100 = getelementptr inbounds i8, ptr %93, i64 %67
  store i8 %95, ptr %100, align 1, !tbaa !15
  %101 = getelementptr inbounds i8, ptr %93, i64 %69
  store i8 %95, ptr %101, align 1, !tbaa !15
  %102 = getelementptr inbounds i8, ptr %93, i64 %72
  store i8 %95, ptr %102, align 1, !tbaa !15
  %103 = getelementptr inbounds i8, ptr %93, i64 %74
  store i8 %95, ptr %103, align 1, !tbaa !15
  %104 = getelementptr inbounds i8, ptr %93, i64 %77
  store i8 %95, ptr %104, align 1, !tbaa !15
  %105 = getelementptr inbounds i8, ptr %93, i64 %80
  store i8 %95, ptr %105, align 1, !tbaa !15
  %106 = getelementptr inbounds nuw i8, ptr %93, i64 3
  store i8 %95, ptr %106, align 1, !tbaa !15
  %107 = getelementptr inbounds nuw i8, ptr %93, i64 2
  store i8 %95, ptr %107, align 1, !tbaa !15
  %108 = getelementptr inbounds i8, ptr %93, i64 %85
  store i8 %95, ptr %108, align 1, !tbaa !15
  %109 = getelementptr inbounds i8, ptr %93, i64 %87
  store i8 %95, ptr %109, align 1, !tbaa !15
  %110 = getelementptr inbounds nuw i8, ptr %93, i64 1
  store i8 %95, ptr %110, align 1, !tbaa !15
  store i8 %95, ptr %93, align 1, !tbaa !15
  ret void
}